SF:/Users/jvindahl/Development/mbuscrate/src/logging.rs
FN:4,_RNvNtCs1FHA6YcSKWc_7mbus_rs7logging11init_logger
FN:23,_RNvNtCs1FHA6YcSKWc_7mbus_rs7logging8log_info
FN:16,_RNvNtCs1FHA6YcSKWc_7mbus_rs7logging8log_warn
FN:30,_RNvNtCs1FHA6YcSKWc_7mbus_rs7logging9log_debug
FN:9,_RNvNtCs1FHA6YcSKWc_7mbus_rs7logging9log_error
FNDA:0,_RNvNtCs1FHA6YcSKWc_7mbus_rs7logging11init_logger
FNDA:0,_RNvNtCs1FHA6YcSKWc_7mbus_rs7logging8log_info
FNDA:0,_RNvNtCs1FHA6YcSKWc_7mbus_rs7logging8log_warn
FNDA:0,_RNvNtCs1FHA6YcSKWc_7mbus_rs7logging9log_debug
FNDA:1,_RNvNtCs1FHA6YcSKWc_7mbus_rs7logging9log_error
FNF:5
FNH:1
DA:4,0
DA:5,0
DA:6,0
DA:9,1
DA:10,1
DA:11,0
DA:12,1
DA:13,1
DA:16,0
DA:17,0
DA:18,0
DA:19,0
DA:20,0
DA:23,0
DA:24,0
DA:25,0
DA:26,0
DA:27,0
DA:30,0
DA:31,0
DA:32,0
DA:33,0
DA:34,0
BRF:0
BRH:0
LF:23
LH:4
end_of_record
SF:/Users/jvindahl/Development/mbuscrate/src/main.rs
FN:27,_RNvCs6dxFpUZOFF1_7mbus_rs4main
FN:27,_RNCNvCs6dxFpUZOFF1_7mbus_rs4main0B3_
FNDA:0,_RNvCs6dxFpUZOFF1_7mbus_rs4main
FNDA:0,_RNCNvCs6dxFpUZOFF1_7mbus_rs4main0B3_
FNF:2
FNH:0
DA:27,0
DA:28,0
DA:30,0
DA:31,0
DA:33,0
DA:34,0
DA:35,0
DA:36,0
DA:37,0
DA:38,0
DA:39,0
DA:40,0
DA:41,0
DA:42,0
DA:43,0
DA:44,0
DA:45,0
DA:46,0
DA:47,0
DA:48,0
DA:49,0
DA:50,0
DA:51,0
DA:52,0
DA:53,0
DA:54,0
DA:55,0
DA:56,0
DA:57,0
DA:58,0
DA:59,0
DA:60,0
BRF:0
BRH:0
LF:52
LH:0
end_of_record
SF:/Users/jvindahl/Development/mbuscrate/src/mbus/frame.rs
FN:290,_RNCNvNtNtCs1FHA6YcSKWc_7mbus_rs4mbus5frame17pack_select_frame0B7_
FN:296,_RNCNvNtNtCs1FHA6YcSKWc_7mbus_rs4mbus5frame17pack_select_frames0_0B7_
FN:291,_RNCNvNtNtCs1FHA6YcSKWc_7mbus_rs4mbus5frame17pack_select_frames_0B7_
FNDA:0,_RNCNvNtNtCs1FHA6YcSKWc_7mbus_rs4mbus5frame17pack_select_frame0B7_
FNDA:0,_RNCNvNtNtCs1FHA6YcSKWc_7mbus_rs4mbus5frame17pack_select_frames0_0B7_
FNDA:0,_RNCNvNtNtCs1FHA6YcSKWc_7mbus_rs4mbus5frame17pack_select_frames_0B7_
FNF:3
FNH:0
DA:290,0
DA:291,0
DA:296,0
BRF:0
BRH:0
LF:3
LH:0
end_of_record
SF:/Users/jvindahl/Development/mbuscrate/src/mbus/serial.rs
FN:51,_RNCNCNvMs_NtNtCs1FHA6YcSKWc_7mbus_rs4mbus6serialNtB8_16MBusDeviceHandle19connect_with_config00Cs6dxFpUZOFF1_7mbus_rs
FN:158,_RNCNvMs0_NtNtCs1FHA6YcSKWc_7mbus_rs4mbus6serialNtB7_16MBusDeviceHandle12scan_devices0Cs6dxFpUZOFF1_7mbus_rs
FN:154,_RNCNvMs0_NtNtCs1FHA6YcSKWc_7mbus_rs4mbus6serialNtB7_16MBusDeviceHandle12send_request0Cs6dxFpUZOFF1_7mbus_rs
FN:57,_RNCNvMs_NtNtCs1FHA6YcSKWc_7mbus_rs4mbus6serialNtB6_16MBusDeviceHandle10disconnect0Cs6dxFpUZOFF1_7mbus_rs
FN:44,_RNCNvMs_NtNtCs1FHA6YcSKWc_7mbus_rs4mbus6serialNtB6_16MBusDeviceHandle19connect_with_config0Cs6dxFpUZOFF1_7mbus_rs
FN:158,_RNvMs0_NtNtCs1FHA6YcSKWc_7mbus_rs4mbus6serialNtB5_16MBusDeviceHandle12scan_devices
FN:154,_RNvMs0_NtNtCs1FHA6YcSKWc_7mbus_rs4mbus6serialNtB5_16MBusDeviceHandle12send_request
FN:57,_RNvMs_NtNtCs1FHA6YcSKWc_7mbus_rs4mbus6serialNtB4_16MBusDeviceHandle10disconnect
FN:80,_RNvMs_NtNtCs1FHA6YcSKWc_7mbus_rs4mbus6serialNtB4_16MBusDeviceHandle10recv_frame
FN:65,_RNvMs_NtNtCs1FHA6YcSKWc_7mbus_rs4mbus6serialNtB4_16MBusDeviceHandle10send_frame
FN:44,_RNvMs_NtNtCs1FHA6YcSKWc_7mbus_rs4mbus6serialNtB4_16MBusDeviceHandle19connect_with_config
FN:39,_RNvMs_NtNtCs1FHA6YcSKWc_7mbus_rs4mbus6serialNtB4_16MBusDeviceHandle7connect
FN:22,_RNvXNtNtCs1FHA6YcSKWc_7mbus_rs4mbus6serialNtB2_12SerialConfigNtNtCsf604Ruxl50l_4core7default7Default7default
FNDA:0,_RNCNCNvMs_NtNtCs1FHA6YcSKWc_7mbus_rs4mbus6serialNtB8_16MBusDeviceHandle19connect_with_config00Cs6dxFpUZOFF1_7mbus_rs
FNDA:0,_RNCNvMs0_NtNtCs1FHA6YcSKWc_7mbus_rs4mbus6serialNtB7_16MBusDeviceHandle12scan_devices0Cs6dxFpUZOFF1_7mbus_rs
FNDA:0,_RNCNvMs0_NtNtCs1FHA6YcSKWc_7mbus_rs4mbus6serialNtB7_16MBusDeviceHandle12send_request0Cs6dxFpUZOFF1_7mbus_rs
FNDA:0,_RNCNvMs_NtNtCs1FHA6YcSKWc_7mbus_rs4mbus6serialNtB6_16MBusDeviceHandle10disconnect0Cs6dxFpUZOFF1_7mbus_rs
FNDA:0,_RNCNvMs_NtNtCs1FHA6YcSKWc_7mbus_rs4mbus6serialNtB6_16MBusDeviceHandle19connect_with_config0Cs6dxFpUZOFF1_7mbus_rs
FNDA:0,_RNvMs0_NtNtCs1FHA6YcSKWc_7mbus_rs4mbus6serialNtB5_16MBusDeviceHandle12scan_devices
FNDA:0,_RNvMs0_NtNtCs1FHA6YcSKWc_7mbus_rs4mbus6serialNtB5_16MBusDeviceHandle12send_request
FNDA:0,_RNvMs_NtNtCs1FHA6YcSKWc_7mbus_rs4mbus6serialNtB4_16MBusDeviceHandle10disconnect
FNDA:0,_RNvMs_NtNtCs1FHA6YcSKWc_7mbus_rs4mbus6serialNtB4_16MBusDeviceHandle10recv_frame
FNDA:0,_RNvMs_NtNtCs1FHA6YcSKWc_7mbus_rs4mbus6serialNtB4_16MBusDeviceHandle10send_frame
FNDA:0,_RNvMs_NtNtCs1FHA6YcSKWc_7mbus_rs4mbus6serialNtB4_16MBusDeviceHandle19connect_with_config
FNDA:0,_RNvMs_NtNtCs1FHA6YcSKWc_7mbus_rs4mbus6serialNtB4_16MBusDeviceHandle7connect
FNDA:0,_RNvXNtNtCs1FHA6YcSKWc_7mbus_rs4mbus6serialNtB2_12SerialConfigNtNtCsf604Ruxl50l_4core7default7Default7default
FNF:13
FNH:0
DA:22,0
DA:23,0
DA:24,0
DA:25,0
DA:26,0
DA:27,0
DA:39,0
DA:44,0
DA:45,0
DA:46,0
DA:47,0
DA:48,0
DA:49,0
DA:50,0
DA:51,0
DA:53,0
DA:54,0
DA:57,0
DA:59,0
DA:60,0
DA:65,0
DA:80,0
DA:154,0
DA:155,0
DA:156,0
DA:158,0
DA:159,0
DA:160,0
BRF:0
BRH:0
LF:33
LH:0
end_of_record
SF:/Users/jvindahl/Development/mbuscrate/src/mbus_device_manager.rs
FN:74,_RNCNvMNtCs1FHA6YcSKWc_7mbus_rs19mbus_device_managerNtB4_17MBusDeviceManager12scan_devices0Cs6dxFpUZOFF1_7mbus_rs
FN:57,_RNCNvMNtCs1FHA6YcSKWc_7mbus_rs19mbus_device_managerNtB4_17MBusDeviceManager12send_request0Cs6dxFpUZOFF1_7mbus_rs
FN:91,_RNCNvMNtCs1FHA6YcSKWc_7mbus_rs19mbus_device_managerNtB4_17MBusDeviceManager14disconnect_all0Cs6dxFpUZOFF1_7mbus_rs
FN:39,_RNCNvMNtCs1FHA6YcSKWc_7mbus_rs19mbus_device_managerNtB4_17MBusDeviceManager27add_mbus_handle_with_config0Cs6dxFpUZOFF1_7mbus_rs
FN:24,_RNCNvMNtCs1FHA6YcSKWc_7mbus_rs19mbus_device_managerNtB4_17MBusDeviceManager3new0Cs6dxFpUZOFF1_7mbus_rs
FN:74,_RNvMNtCs1FHA6YcSKWc_7mbus_rs19mbus_device_managerNtB2_17MBusDeviceManager12scan_devices
FN:54,_RNvMNtCs1FHA6YcSKWc_7mbus_rs19mbus_device_managerNtB2_17MBusDeviceManager12send_request
FN:91,_RNvMNtCs1FHA6YcSKWc_7mbus_rs19mbus_device_managerNtB2_17MBusDeviceManager14disconnect_all
FN:32,_RNvMNtCs1FHA6YcSKWc_7mbus_rs19mbus_device_managerNtB2_17MBusDeviceManager15add_mbus_handle
FN:47,_RNvMNtCs1FHA6YcSKWc_7mbus_rs19mbus_device_managerNtB2_17MBusDeviceManager16add_wmbus_handle
FN:39,_RNvMNtCs1FHA6YcSKWc_7mbus_rs19mbus_device_managerNtB2_17MBusDeviceManager27add_mbus_handle_with_config
FN:24,_RNvMNtCs1FHA6YcSKWc_7mbus_rs19mbus_device_managerNtB2_17MBusDeviceManager3new
FNDA:0,_RNCNvMNtCs1FHA6YcSKWc_7mbus_rs19mbus_device_managerNtB4_17MBusDeviceManager12scan_devices0Cs6dxFpUZOFF1_7mbus_rs
FNDA:0,_RNCNvMNtCs1FHA6YcSKWc_7mbus_rs19mbus_device_managerNtB4_17MBusDeviceManager12send_request0Cs6dxFpUZOFF1_7mbus_rs
FNDA:0,_RNCNvMNtCs1FHA6YcSKWc_7mbus_rs19mbus_device_managerNtB4_17MBusDeviceManager14disconnect_all0Cs6dxFpUZOFF1_7mbus_rs
FNDA:0,_RNCNvMNtCs1FHA6YcSKWc_7mbus_rs19mbus_device_managerNtB4_17MBusDeviceManager27add_mbus_handle_with_config0Cs6dxFpUZOFF1_7mbus_rs
FNDA:0,_RNCNvMNtCs1FHA6YcSKWc_7mbus_rs19mbus_device_managerNtB4_17MBusDeviceManager3new0Cs6dxFpUZOFF1_7mbus_rs
FNDA:0,_RNvMNtCs1FHA6YcSKWc_7mbus_rs19mbus_device_managerNtB2_17MBusDeviceManager12scan_devices
FNDA:0,_RNvMNtCs1FHA6YcSKWc_7mbus_rs19mbus_device_managerNtB2_17MBusDeviceManager12send_request
FNDA:0,_RNvMNtCs1FHA6YcSKWc_7mbus_rs19mbus_device_managerNtB2_17MBusDeviceManager14disconnect_all
FNDA:0,_RNvMNtCs1FHA6YcSKWc_7mbus_rs19mbus_device_managerNtB2_17MBusDeviceManager15add_mbus_handle
FNDA:0,_RNvMNtCs1FHA6YcSKWc_7mbus_rs19mbus_device_managerNtB2_17MBusDeviceManager16add_wmbus_handle
FNDA:0,_RNvMNtCs1FHA6YcSKWc_7mbus_rs19mbus_device_managerNtB2_17MBusDeviceManager27add_mbus_handle_with_config
FNDA:0,_RNvMNtCs1FHA6YcSKWc_7mbus_rs19mbus_device_managerNtB2_17MBusDeviceManager3new
FNF:12
FNH:0
DA:24,0
DA:25,0
DA:26,0
DA:27,0
DA:28,0
DA:29,0
DA:32,0
DA:39,0
DA:40,0
DA:41,0
DA:42,0
DA:43,0
DA:44,0
DA:47,0
DA:54,0
DA:55,0
DA:56,0
DA:57,0
DA:58,0
DA:61,0
DA:62,0
DA:66,0
DA:67,0
DA:70,0
DA:71,0
DA:74,0
DA:75,0
DA:78,0
DA:79,0
DA:83,0
DA:84,0
DA:87,0
DA:88,0
DA:91,0
DA:93,0
DA:94,0
DA:98,0
DA:99,0
DA:102,0
DA:103,0
BRF:0
BRH:0
LF:45
LH:0
end_of_record
SF:/Users/jvindahl/Development/mbuscrate/src/payload/data.rs
FN:86,_RNCNCNvNtNtCs1FHA6YcSKWc_7mbus_rs7payload4data29mbus_data_record_value_decode00B9_
FN:28,_RNCNvNtNtCs1FHA6YcSKWc_7mbus_rs7payload4data23mbus_data_record_decode0B7_
FN:85,_RNCNvNtNtCs1FHA6YcSKWc_7mbus_rs7payload4data29mbus_data_record_value_decode0B7_
FN:107,_RNCNvNtNtCs1FHA6YcSKWc_7mbus_rs7payload4data29mbus_data_record_value_decodes_0B7_
FN:27,_RNvNtNtCs1FHA6YcSKWc_7mbus_rs7payload4data23mbus_data_record_decode
FN:137,_RNvNtNtCs1FHA6YcSKWc_7mbus_rs7payload4data23mbus_data_record_device
FN:127,_RNvNtNtCs1FHA6YcSKWc_7mbus_rs7payload4data23mbus_data_record_tariff
FN:147,_RNvNtNtCs1FHA6YcSKWc_7mbus_rs7payload4data25mbus_data_record_function
FN:69,_RNvNtNtCs1FHA6YcSKWc_7mbus_rs7payload4data26mbus_dif_datalength_lookup
FN:84,_RNvNtNtCs1FHA6YcSKWc_7mbus_rs7payload4data29mbus_data_record_value_decode
FN:114,_RNvNtNtCs1FHA6YcSKWc_7mbus_rs7payload4data31mbus_data_record_storage_number
FNDA:20,_RNCNCNvNtNtCs1FHA6YcSKWc_7mbus_rs7payload4data29mbus_data_record_value_decode00B9_
FNDA:24,_RNCNvNtNtCs1FHA6YcSKWc_7mbus_rs7payload4data23mbus_data_record_decode0B7_
FNDA:4,_RNCNvNtNtCs1FHA6YcSKWc_7mbus_rs7payload4data29mbus_data_record_value_decode0B7_
FNDA:0,_RNCNvNtNtCs1FHA6YcSKWc_7mbus_rs7payload4data29mbus_data_record_value_decodes_0B7_
FNDA:25,_RNvNtNtCs1FHA6YcSKWc_7mbus_rs7payload4data23mbus_data_record_decode
FNDA:23,_RNvNtNtCs1FHA6YcSKWc_7mbus_rs7payload4data23mbus_data_record_device
FNDA:23,_RNvNtNtCs1FHA6YcSKWc_7mbus_rs7payload4data23mbus_data_record_tariff
FNDA:23,_RNvNtNtCs1FHA6YcSKWc_7mbus_rs7payload4data25mbus_data_record_function
FNDA:24,_RNvNtNtCs1FHA6YcSKWc_7mbus_rs7payload4data26mbus_dif_datalength_lookup
FNDA:21,_RNvNtNtCs1FHA6YcSKWc_7mbus_rs7payload4data29mbus_data_record_value_decode
FNDA:23,_RNvNtNtCs1FHA6YcSKWc_7mbus_rs7payload4data31mbus_data_record_storage_number
FNF:11
FNH:10
DA:27,25
DA:28,25
DA:29,24
DA:30,25
DA:31,24
DA:32,24
DA:34,24
DA:36,24
DA:38,23
DA:39,23
DA:40,23
DA:41,23
DA:42,23
DA:43,23
DA:44,23
DA:45,23
DA:46,23
DA:47,23
DA:48,23
DA:50,23
DA:51,2
DA:52,2
DA:53,2
DA:54,2
DA:55,2
DA:56,2
DA:57,21
DA:58,21
DA:59,20
DA:60,20
DA:61,1
DA:62,1
DA:63,1
DA:66,23
DA:67,25
DA:69,24
DA:70,24
DA:71,1
DA:72,11
DA:73,1
DA:74,0
DA:75,2
DA:76,1
DA:77,1
DA:78,1
DA:79,2
DA:80,4
DA:82,24
DA:84,21
DA:85,21
DA:86,20
DA:87,4
DA:88,21
DA:89,11
DA:90,1
DA:91,0
DA:92,1
DA:94,1
DA:95,1
DA:96,1
DA:97,1
DA:98,1
DA:99,1
DA:101,0
DA:104,1
DA:105,1
DA:107,4
DA:108,4
DA:110,1
DA:112,21
DA:114,23
DA:115,23
DA:116,46
DA:117,23
DA:118,1
DA:119,22
DA:120,23
DA:121,0
DA:122,23
DA:124,23
DA:125,23
DA:127,23
DA:128,23
DA:129,46
DA:130,23
DA:131,0
DA:132,23
DA:134,23
DA:135,23
DA:137,23
DA:138,23
DA:139,46
DA:140,23
DA:141,1
DA:142,22
DA:144,23
DA:145,23
DA:147,23
DA:148,23
DA:149,20
DA:150,1
DA:151,1
DA:152,1
DA:153,0
DA:155,23
BRF:0
BRH:0
LF:110
LH:103
end_of_record
SF:/Users/jvindahl/Development/mbuscrate/src/payload/data_encoding.rs
FN:140,_RNCNvNtNtCs1FHA6YcSKWc_7mbus_rs7payload13data_encoding10decode_int0B7_
FN:142,_RNCNvNtNtCs1FHA6YcSKWc_7mbus_rs7payload13data_encoding10decode_ints0_0B7_
FN:143,_RNCNvNtNtCs1FHA6YcSKWc_7mbus_rs7payload13data_encoding10decode_ints1_0B7_
FN:141,_RNCNvNtNtCs1FHA6YcSKWc_7mbus_rs7payload13data_encoding10decode_ints_0B7_
FN:236,_RNCNvNtNtCs1FHA6YcSKWc_7mbus_rs7payload13data_encoding11decode_time0B7_
FN:224,_RNCNvNtNtCs1FHA6YcSKWc_7mbus_rs7payload13data_encoding12decode_float0B7_
FN:166,_RNCNvNtNtCs1FHA6YcSKWc_7mbus_rs7payload13data_encoding14decode_bcd_hex0B7_
FN:151,_RNCNvNtNtCs1FHA6YcSKWc_7mbus_rs7payload13data_encoding16decode_long_long0B7_
FN:158,_RNCNvNtNtCs1FHA6YcSKWc_7mbus_rs7payload13data_encoding16decode_long_longs_0B7_
FN:284,_RNCNvNtNtCs1FHA6YcSKWc_7mbus_rs7payload13data_encoding29mbus_data_manufacturer_encode0B7_
FN:102,_RNvNtNtCs1FHA6YcSKWc_7mbus_rs7payload13data_encoding10decode_bcd
FN:138,_RNvNtNtCs1FHA6YcSKWc_7mbus_rs7payload13data_encoding10decode_int
FN:124,_RNvNtNtCs1FHA6YcSKWc_7mbus_rs7payload13data_encoding10encode_bcd
FN:235,_RNvNtNtCs1FHA6YcSKWc_7mbus_rs7payload13data_encoding11decode_time
FN:223,_RNvNtNtCs1FHA6YcSKWc_7mbus_rs7payload13data_encoding12decode_float
FN:165,_RNvNtNtCs1FHA6YcSKWc_7mbus_rs7payload13data_encoding14decode_bcd_hex
FN:190,_RNvNtNtCs1FHA6YcSKWc_7mbus_rs7payload13data_encoding14encode_int_u64
FN:149,_RNvNtNtCs1FHA6YcSKWc_7mbus_rs7payload13data_encoding16decode_long_long
FN:33,_RNvNtNtCs1FHA6YcSKWc_7mbus_rs7payload13data_encoding16decode_mbus_time
FN:85,_RNvNtNtCs1FHA6YcSKWc_7mbus_rs7payload13data_encoding20mbus_data_bin_decode
FN:16,_RNvNtNtCs1FHA6YcSKWc_7mbus_rs7payload13data_encoding20mbus_data_str_decode
FN:300,_RNvNtNtCs1FHA6YcSKWc_7mbus_rs7payload13data_encoding24mbus_decode_manufacturer
FN:283,_RNvNtNtCs1FHA6YcSKWc_7mbus_rs7payload13data_encoding29mbus_data_manufacturer_encode
FNDA:0,_RNCNvNtNtCs1FHA6YcSKWc_7mbus_rs7payload13data_encoding10decode_int0B7_
FNDA:0,_RNCNvNtNtCs1FHA6YcSKWc_7mbus_rs7payload13data_encoding10decode_ints0_0B7_
FNDA:0,_RNCNvNtNtCs1FHA6YcSKWc_7mbus_rs7payload13data_encoding10decode_ints1_0B7_
FNDA:0,_RNCNvNtNtCs1FHA6YcSKWc_7mbus_rs7payload13data_encoding10decode_ints_0B7_
FNDA:0,_RNCNvNtNtCs1FHA6YcSKWc_7mbus_rs7payload13data_encoding11decode_time0B7_
FNDA:0,_RNCNvNtNtCs1FHA6YcSKWc_7mbus_rs7payload13data_encoding12decode_float0B7_
FNDA:0,_RNCNvNtNtCs1FHA6YcSKWc_7mbus_rs7payload13data_encoding14decode_bcd_hex0B7_
FNDA:0,_RNCNvNtNtCs1FHA6YcSKWc_7mbus_rs7payload13data_encoding16decode_long_long0B7_
FNDA:0,_RNCNvNtNtCs1FHA6YcSKWc_7mbus_rs7payload13data_encoding16decode_long_longs_0B7_
FNDA:0,_RNCNvNtNtCs1FHA6YcSKWc_7mbus_rs7payload13data_encoding29mbus_data_manufacturer_encode0B7_
FNDA:0,_RNvNtNtCs1FHA6YcSKWc_7mbus_rs7payload13data_encoding10decode_bcd
FNDA:0,_RNvNtNtCs1FHA6YcSKWc_7mbus_rs7payload13data_encoding10decode_int
FNDA:0,_RNvNtNtCs1FHA6YcSKWc_7mbus_rs7payload13data_encoding10encode_bcd
FNDA:0,_RNvNtNtCs1FHA6YcSKWc_7mbus_rs7payload13data_encoding11decode_time
FNDA:0,_RNvNtNtCs1FHA6YcSKWc_7mbus_rs7payload13data_encoding12decode_float
FNDA:0,_RNvNtNtCs1FHA6YcSKWc_7mbus_rs7payload13data_encoding14decode_bcd_hex
FNDA:0,_RNvNtNtCs1FHA6YcSKWc_7mbus_rs7payload13data_encoding14encode_int_u64
FNDA:0,_RNvNtNtCs1FHA6YcSKWc_7mbus_rs7payload13data_encoding16decode_long_long
FNDA:0,_RNvNtNtCs1FHA6YcSKWc_7mbus_rs7payload13data_encoding16decode_mbus_time
FNDA:0,_RNvNtNtCs1FHA6YcSKWc_7mbus_rs7payload13data_encoding20mbus_data_bin_decode
FNDA:2,_RNvNtNtCs1FHA6YcSKWc_7mbus_rs7payload13data_encoding20mbus_data_str_decode
FNDA:0,_RNvNtNtCs1FHA6YcSKWc_7mbus_rs7payload13data_encoding24mbus_decode_manufacturer
FNDA:0,_RNvNtNtCs1FHA6YcSKWc_7mbus_rs7payload13data_encoding29mbus_data_manufacturer_encode
FNF:23
FNH:1
DA:16,2
DA:17,2
DA:18,2
DA:19,0
DA:20,0
DA:21,2
DA:33,0
DA:34,0
DA:36,0
DA:37,0
DA:38,0
DA:39,0
DA:40,0
DA:41,0
DA:42,0
DA:43,0
DA:46,0
DA:47,0
DA:48,0
DA:49,0
DA:50,0
DA:51,0
DA:52,0
DA:53,0
DA:54,0
DA:55,0
DA:56,0
DA:60,0
DA:61,0
DA:62,0
DA:63,0
DA:64,0
DA:65,0
DA:66,0
DA:67,0
DA:68,0
DA:69,0
DA:70,0
DA:71,0
DA:72,0
DA:73,0
DA:74,0
DA:75,0
DA:76,0
DA:78,0
DA:81,0
DA:82,0
DA:85,0
DA:86,0
DA:87,0
DA:88,0
DA:89,0
DA:90,0
DA:91,0
DA:92,0
DA:93,0
DA:94,0
DA:96,0
DA:97,0
DA:98,0
DA:99,0
DA:102,0
DA:103,0
DA:105,0
DA:106,0
DA:107,0
DA:108,0
DA:111,0
DA:112,0
DA:113,0
DA:114,0
DA:115,0
DA:116,0
DA:117,0
DA:118,0
DA:120,0
DA:121,0
DA:124,0
DA:125,0
DA:126,0
DA:128,0
DA:129,0
DA:130,0
DA:131,0
DA:132,0
DA:134,0
DA:135,0
DA:138,0
DA:139,0
DA:140,0
DA:141,0
DA:142,0
DA:143,0
DA:144,0
DA:146,0
DA:149,0
DA:150,0
DA:151,0
DA:152,0
DA:153,0
DA:154,0
DA:155,0
DA:156,0
DA:157,0
DA:158,0
DA:159,0
DA:160,0
DA:161,0
DA:162,0
DA:164,0
DA:165,0
DA:166,0
DA:167,0
DA:168,0
DA:170,0
DA:171,0
DA:172,0
DA:173,0
DA:174,0
DA:176,0
DA:177,0
DA:178,0
DA:190,0
DA:191,0
DA:193,0
DA:194,0
DA:197,0
DA:198,0
DA:201,0
DA:202,0
DA:205,0
DA:206,0
DA:208,0
DA:210,0
DA:223,0
DA:224,0
DA:225,0
DA:226,0
DA:227,0
DA:228,0
DA:229,0
DA:230,0
DA:231,0
DA:232,0
DA:235,0
DA:236,0
DA:237,0
DA:239,0
DA:240,0
DA:241,0
DA:242,0
DA:243,0
DA:244,0
DA:245,0
DA:246,0
DA:247,0
DA:248,0
DA:249,0
DA:250,0
DA:251,0
DA:252,0
DA:253,0
DA:254,0
DA:255,0
DA:256,0
DA:257,0
DA:258,0
DA:259,0
DA:260,0
DA:261,0
DA:262,0
DA:263,0
DA:264,0
DA:265,0
DA:266,0
DA:267,0
DA:268,0
DA:269,0
DA:270,0
DA:271,0
DA:272,0
DA:273,0
DA:274,0
DA:275,0
DA:278,0
DA:279,0
DA:280,0
DA:283,0
DA:284,0
DA:285,0
DA:286,0
DA:288,0
DA:289,0
DA:290,0
DA:292,0
DA:293,0
DA:294,0
DA:296,0
DA:297,0
DA:300,0
DA:301,0
DA:302,0
DA:304,0
DA:305,0
DA:306,0
DA:307,0
DA:308,0
DA:310,0
DA:311,0
BRF:0
BRH:0
LF:223
LH:4
end_of_record
SF:/Users/jvindahl/Development/mbuscrate/src/payload/record.rs
FN:398,_RNCNvNtNtCs1FHA6YcSKWc_7mbus_rs7payload6record20normalize_fixed_unit0B7_
FN:265,_RNCNvNtNtCs1FHA6YcSKWc_7mbus_rs7payload6record21parse_variable_record0B7_
FN:340,_RNCNvNtNtCs1FHA6YcSKWc_7mbus_rs7payload6record27parse_variable_record_inners0_0B7_
FN:366,_RNCNvNtNtCs1FHA6YcSKWc_7mbus_rs7payload6record27parse_variable_record_inners2_0B7_
FNDA:0,_RNCNvNtNtCs1FHA6YcSKWc_7mbus_rs7payload6record20normalize_fixed_unit0B7_
FNDA:0,_RNCNvNtNtCs1FHA6YcSKWc_7mbus_rs7payload6record21parse_variable_record0B7_
FNDA:0,_RNCNvNtNtCs1FHA6YcSKWc_7mbus_rs7payload6record27parse_variable_record_inners0_0B7_
FNDA:0,_RNCNvNtNtCs1FHA6YcSKWc_7mbus_rs7payload6record27parse_variable_record_inners2_0B7_
FNF:4
FNH:0
DA:265,0
DA:340,0
DA:366,0
DA:398,0
BRF:0
BRH:0
LF:4
LH:0
end_of_record
SF:/Users/jvindahl/Development/mbuscrate/src/payload/vif.rs
FN:21,_RNvNtNtCs1FHA6YcSKWc_7mbus_rs7payload3vif10parse_vife
FN:58,_RNvNtNtCs1FHA6YcSKWc_7mbus_rs7payload3vif13normalize_vib
FN:51,_RNvNtNtCs1FHA6YcSKWc_7mbus_rs7payload3vif9parse_vib
FN:12,_RNvNtNtCs1FHA6YcSKWc_7mbus_rs7payload3vif9parse_vif
FN:42,_RNCNvNtNtCs1FHA6YcSKWc_7mbus_rs7payload3vif10parse_vife0B7_
FNDA:24,_RNvNtNtCs1FHA6YcSKWc_7mbus_rs7payload3vif10parse_vife
FNDA:24,_RNvNtNtCs1FHA6YcSKWc_7mbus_rs7payload3vif13normalize_vib
FNDA:24,_RNvNtNtCs1FHA6YcSKWc_7mbus_rs7payload3vif9parse_vib
FNDA:24,_RNvNtNtCs1FHA6YcSKWc_7mbus_rs7payload3vif9parse_vif
FNDA:21,_RNCNvNtNtCs1FHA6YcSKWc_7mbus_rs7payload3vif10parse_vife0B7_
FNF:5
FNH:5
DA:12,24
DA:13,24
DA:15,24
DA:16,24
DA:18,24
DA:19,24
DA:21,24
DA:22,24
DA:24,21
DA:25,0
DA:26,0
DA:27,0
DA:28,0
DA:29,0
DA:30,0
DA:31,0
DA:32,21
DA:33,0
DA:34,0
DA:35,0
DA:36,0
DA:37,0
DA:38,0
DA:39,0
DA:41,21
DA:42,21
DA:43,21
DA:44,21
DA:45,21
DA:46,21
DA:47,0
DA:49,24
DA:51,24
DA:52,24
DA:53,24
DA:55,24
DA:56,24
DA:58,24
DA:59,24
DA:60,24
DA:61,24
DA:63,48
DA:64,24
DA:65,24
DA:66,24
DA:67,24
DA:69,24
DA:70,0
DA:71,24
DA:73,24
DA:74,24
BRF:0
BRH:0
LF:52
LH:36
end_of_record
SF:/Users/jvindahl/Development/mbuscrate/src/payload/vif_maps.rs
FN:231,_RNvNtNtCs1FHA6YcSKWc_7mbus_rs7payload8vif_maps14lookup_vife_fb
FN:221,_RNvNtNtCs1FHA6YcSKWc_7mbus_rs7payload8vif_maps14lookup_vife_fd
FN:211,_RNvNtNtCs1FHA6YcSKWc_7mbus_rs7payload8vif_maps18lookup_primary_vif
FN:232,_RNCNvNtNtCs1FHA6YcSKWc_7mbus_rs7payload8vif_maps14lookup_vife_fb0B7_
FN:233,_RNCNvNtNtCs1FHA6YcSKWc_7mbus_rs7payload8vif_maps14lookup_vife_fbs_0B7_
FN:222,_RNCNvNtNtCs1FHA6YcSKWc_7mbus_rs7payload8vif_maps14lookup_vife_fd0B7_
FN:223,_RNCNvNtNtCs1FHA6YcSKWc_7mbus_rs7payload8vif_maps14lookup_vife_fds_0B7_
FN:212,_RNCNvNtNtCs1FHA6YcSKWc_7mbus_rs7payload8vif_maps18lookup_primary_vif0B7_
FN:213,_RNCNvNtNtCs1FHA6YcSKWc_7mbus_rs7payload8vif_maps18lookup_primary_vifs_0B7_
FNDA:21,_RNvNtNtCs1FHA6YcSKWc_7mbus_rs7payload8vif_maps14lookup_vife_fb
FNDA:21,_RNvNtNtCs1FHA6YcSKWc_7mbus_rs7payload8vif_maps14lookup_vife_fd
FNDA:24,_RNvNtNtCs1FHA6YcSKWc_7mbus_rs7payload8vif_maps18lookup_primary_vif
FNDA:0,_RNCNvNtNtCs1FHA6YcSKWc_7mbus_rs7payload8vif_maps14lookup_vife_fb0B7_
FNDA:0,_RNCNvNtNtCs1FHA6YcSKWc_7mbus_rs7payload8vif_maps14lookup_vife_fbs_0B7_
FNDA:966,_RNCNvNtNtCs1FHA6YcSKWc_7mbus_rs7payload8vif_maps14lookup_vife_fd0B7_
FNDA:0,_RNCNvNtNtCs1FHA6YcSKWc_7mbus_rs7payload8vif_maps14lookup_vife_fds_0B7_
FNDA:88,_RNCNvNtNtCs1FHA6YcSKWc_7mbus_rs7payload8vif_maps18lookup_primary_vif0B7_
FNDA:24,_RNCNvNtNtCs1FHA6YcSKWc_7mbus_rs7payload8vif_maps18lookup_primary_vifs_0B7_
FNF:9
FNH:6
DA:211,24
DA:212,88
DA:213,24
DA:214,24
DA:215,24
DA:216,24
DA:217,24
DA:218,24
DA:221,21
DA:222,966
DA:223,0
DA:224,0
DA:225,0
DA:226,0
DA:227,0
DA:228,21
DA:231,21
DA:232,21
DA:233,0
DA:234,0
DA:235,0
DA:236,0
DA:237,0
DA:238,21
BRF:0
BRH:0
LF:27
LH:16
end_of_record
SF:/Users/jvindahl/Development/mbuscrate/src/wmbus/handle.rs
FN:33,_RNCNvMNtNtCs1FHA6YcSKWc_7mbus_rs5wmbus6handleNtB4_11WMBusHandle10disconnect0Cs6dxFpUZOFF1_7mbus_rs
FN:65,_RNCNvMNtNtCs1FHA6YcSKWc_7mbus_rs5wmbus6handleNtB4_11WMBusHandle12scan_devices0Cs6dxFpUZOFF1_7mbus_rs
FN:60,_RNCNvMNtNtCs1FHA6YcSKWc_7mbus_rs5wmbus6handleNtB4_11WMBusHandle12send_request0Cs6dxFpUZOFF1_7mbus_rs
FN:33,_RNvMNtNtCs1FHA6YcSKWc_7mbus_rs5wmbus6handleNtB2_11WMBusHandle10disconnect
FN:45,_RNvMNtNtCs1FHA6YcSKWc_7mbus_rs5wmbus6handleNtB2_11WMBusHandle10recv_frame
FN:39,_RNvMNtNtCs1FHA6YcSKWc_7mbus_rs5wmbus6handleNtB2_11WMBusHandle10send_frame
FN:65,_RNvMNtNtCs1FHA6YcSKWc_7mbus_rs5wmbus6handleNtB2_11WMBusHandle12scan_devices
FN:60,_RNvMNtNtCs1FHA6YcSKWc_7mbus_rs5wmbus6handleNtB2_11WMBusHandle12send_request
FN:51,_RNvMNtNtCs1FHA6YcSKWc_7mbus_rs5wmbus6handleNtB2_11WMBusHandle34register_unsolicited_data_callback
FN:25,_RNvMNtNtCs1FHA6YcSKWc_7mbus_rs5wmbus6handleNtB2_11WMBusHandle7connect
FNDA:0,_RNCNvMNtNtCs1FHA6YcSKWc_7mbus_rs5wmbus6handleNtB4_11WMBusHandle10disconnect0Cs6dxFpUZOFF1_7mbus_rs
FNDA:0,_RNCNvMNtNtCs1FHA6YcSKWc_7mbus_rs5wmbus6handleNtB4_11WMBusHandle12scan_devices0Cs6dxFpUZOFF1_7mbus_rs
FNDA:0,_RNCNvMNtNtCs1FHA6YcSKWc_7mbus_rs5wmbus6handleNtB4_11WMBusHandle12send_request0Cs6dxFpUZOFF1_7mbus_rs
FNDA:0,_RNvMNtNtCs1FHA6YcSKWc_7mbus_rs5wmbus6handleNtB2_11WMBusHandle10disconnect
FNDA:0,_RNvMNtNtCs1FHA6YcSKWc_7mbus_rs5wmbus6handleNtB2_11WMBusHandle10recv_frame
FNDA:0,_RNvMNtNtCs1FHA6YcSKWc_7mbus_rs5wmbus6handleNtB2_11WMBusHandle10send_frame
FNDA:0,_RNvMNtNtCs1FHA6YcSKWc_7mbus_rs5wmbus6handleNtB2_11WMBusHandle12scan_devices
FNDA:0,_RNvMNtNtCs1FHA6YcSKWc_7mbus_rs5wmbus6handleNtB2_11WMBusHandle12send_request
FNDA:0,_RNvMNtNtCs1FHA6YcSKWc_7mbus_rs5wmbus6handleNtB2_11WMBusHandle34register_unsolicited_data_callback
FNDA:0,_RNvMNtNtCs1FHA6YcSKWc_7mbus_rs5wmbus6handleNtB2_11WMBusHandle7connect
FNF:10
FNH:0
DA:25,0
DA:33,0
DA:34,0
DA:35,0
DA:36,0
DA:39,0
DA:45,0
DA:51,0
DA:52,0
DA:53,0
DA:54,0
DA:55,0
DA:56,0
DA:60,0
DA:61,0
DA:62,0
DA:65,0
DA:66,0
DA:67,0
BRF:0
BRH:0
LF:22
LH:0
end_of_record